Archive member included because of file (symbol)

bin/rtsmbserverapplication.a(serverexample.o)
                              bin/rtsmbserverapplication.o (smbservermain)
bin/rtsmbserverapplication.a(rtpscnv.o)
                              bin/rtsmbserverapplication.a(serverexample.o) (rtp_itoa)
bin/rtsmbserverapplication.a(rtpstr.o)
                              bin/rtsmbserverapplication.a(serverexample.o) (rtp_strcpy)
bin/rtsmbserverapplication.a(rtpnet.o)
                              bin/rtsmbserverapplication.a(serverexample.o) (rtp_net_init)
bin/rtsmbserverapplication.a(rtpterm.o)
                              bin/rtsmbserverapplication.a(serverexample.o) (rtp_term_kbhit)
bin/rtsmbserverapplication.a(smbnet.o)
                              bin/rtsmbserverapplication.a(serverexample.o) (rtsmb_init_port_well_know)
bin/rtsmbserverapplication.a(srvapi.o)
                              bin/rtsmbserverapplication.a(serverexample.o) (rtsmb_srv_share_add_tree)
bin/rtsmbserverapplication.a(srvarg.o)
                              bin/rtsmbserverapplication.a(srvapi.o) (RTSMB_ReadArgsFrom)
bin/rtsmbserverapplication.a(srvauth.o)
                              bin/rtsmbserverapplication.a(srvapi.o) (Auth_RegisterGroup)
bin/rtsmbserverapplication.a(srvbrws.o)
                              bin/rtsmbserverapplication.a(srvapi.o) (rtsmb_srv_browse_get_next_wake_timeout)
bin/rtsmbserverapplication.a(srvcfg.o)
                              bin/rtsmbserverapplication.a(srvauth.o) (prtsmb_srv_ctx)
bin/rtsmbserverapplication.a(srvglue.o)
                              bin/rtsmbserverapplication.a(srvapi.o) (rtsmb_srv_glue_init)
bin/rtsmbserverapplication.a(srvnbns.o)
                              bin/rtsmbserverapplication.a(srvbrws.o) (rtsmb_srv_nbns_add_name)
bin/rtsmbserverapplication.a(srvnet.o)
                              bin/rtsmbserverapplication.a(srvnbns.o) (rtsmb_srv_net_get_nbns_socket)
bin/rtsmbserverapplication.a(srvrsrcs.o)
                              bin/rtsmbserverapplication.a(srvnet.o) (claimSession)
bin/rtsmbserverapplication.a(srvshare.o)
                              bin/rtsmbserverapplication.a(srvapi.o) (SR_Init)
bin/rtsmbserverapplication.a(srvssn.o)
                              bin/rtsmbserverapplication.a(srvshare.o) (SMBS_CloseShare)
bin/rtsmbserverapplication.a(srvtran2.o)
                              bin/rtsmbserverapplication.a(srvssn.o) (ST2_FindFirst2)
bin/rtsmbserverapplication.a(srvutil.o)
                              bin/rtsmbserverapplication.a(srvssn.o) (SMBU_MakeError)
bin/rtsmbserverapplication.a(rtpchar.o)
                              bin/rtsmbserverapplication.a(srvnbns.o) (rtp_isdigit)
bin/rtsmbserverapplication.a(rtprand.o)
                              bin/rtsmbserverapplication.a(srvbrws.o) (rtp_rand)
bin/rtsmbserverapplication.a(rtpwchar.o)
                              bin/rtsmbserverapplication.a(srvutil.o) (rtp_towupper)
bin/rtsmbserverapplication.a(rtpwcs.o)
                              bin/rtsmbserverapplication.a(srvssn.o) (rtp_wcslen)
bin/rtsmbserverapplication.a(rtpdebug.o)
                              bin/rtsmbserverapplication.a(rtpnet.o) (_rtp_debug_output_str)
bin/rtsmbserverapplication.a(rtpsignl.o)
                              bin/rtsmbserverapplication.a(srvcfg.o) (_rtp_sig_mutex_alloc)
bin/rtsmbserverapplication.a(rtpthrd.o)
                              bin/rtsmbserverapplication.a(srvnet.o) (rtp_thread_spawn)
bin/rtsmbserverapplication.a(rtptime.o)
                              bin/rtsmbserverapplication.a(srvbrws.o) (rtp_get_system_msec)
bin/rtsmbserverapplication.a(md4_one.o)
                              bin/rtsmbserverapplication.a(srvutil.o) (RTSMB_MD4)
bin/rtsmbserverapplication.a(psmbfile.o)
                              bin/rtsmbserverapplication.a(srvarg.o) (prtsmb_filesys)
bin/rtsmbserverapplication.a(psmbnet.o)
                              bin/rtsmbserverapplication.a(smbnet.o) (rtsmb_netport_select_n_for_read)
bin/rtsmbserverapplication.a(psmbos.o)
                              bin/rtsmbserverapplication.a(srvshare.o) (rtsmb_osport_printer_init)
bin/rtsmbserverapplication.a(smbbrbuf.o)
                              bin/rtsmbserverapplication.a(srvbrws.o) (rtsmb_nbds_read_get_backup_list)
bin/rtsmbserverapplication.a(smbbrcfg.o)
                              bin/rtsmbserverapplication.a(srvbrws.o) (prtsmb_browse_ctx)
bin/rtsmbserverapplication.a(smbdebug.o)
                              bin/rtsmbserverapplication.a(smbnet.o) (_rtsmb_debug_output_str)
bin/rtsmbserverapplication.a(smbglue.o)
                              bin/rtsmbserverapplication.a(srvglue.o) (rtsmb_glue_get_server_name_from_cache)
bin/rtsmbserverapplication.a(smbnb.o)
                              bin/rtsmbserverapplication.a(smbbrbuf.o) (rtsmb_nb_fill_name)
bin/rtsmbserverapplication.a(smbnbds.o)
                              bin/rtsmbserverapplication.a(srvbrws.o) (rtsmb_nbds_write)
bin/rtsmbserverapplication.a(smbnbns.o)
                              bin/rtsmbserverapplication.a(srvnbns.o) (rtsmb_nbns_fill_header)
bin/rtsmbserverapplication.a(smbnbss.o)
                              bin/rtsmbserverapplication.a(srvssn.o) (rtsmb_nbss_fill_header)
bin/rtsmbserverapplication.a(smbpack.o)
                              bin/rtsmbserverapplication.a(srvnbns.o) (rtsmb_pack_add)
bin/rtsmbserverapplication.a(smbread.o)
                              bin/rtsmbserverapplication.a(smbbrbuf.o) (rtsmb_read)
bin/rtsmbserverapplication.a(smbutil.o)
                              bin/rtsmbserverapplication.a(smbdebug.o) (rtsmb_util_unicode_to_ascii)
bin/rtsmbserverapplication.a(srvans.o)
                              bin/rtsmbserverapplication.a(srvssn.o) (srv_cmd_fill_header)
bin/rtsmbserverapplication.a(srvassrt.o)
                              bin/rtsmbserverapplication.a(srvssn.o) (assertUid)
bin/rtsmbserverapplication.a(srvbrbak.o)
                              bin/rtsmbserverapplication.a(srvnet.o) (rtsmb_srv_browse_finish_server_enum)
bin/rtsmbserverapplication.a(srvbrbuf.o)
                              bin/rtsmbserverapplication.a(srvbrws.o) (rtsmb_srv_browse_read_host_announcement)
bin/rtsmbserverapplication.a(srvcli.o)
                              bin/rtsmbserverapplication.a(srvbrbak.o) (rtsmb_srv_cli_connect_to)
bin/rtsmbserverapplication.a(srvcmds.o)
                              bin/rtsmbserverapplication.a(srvssn.o) (srv_cmd_read_header)
bin/rtsmbserverapplication.a(srvfio.o)
                              bin/rtsmbserverapplication.a(srvssn.o) (SMBFIO_ExpandName)
bin/rtsmbserverapplication.a(srvnbss.o)
                              bin/rtsmbserverapplication.a(srvnet.o) (rtsmb_srv_nbss_send_session_response)
bin/rtsmbserverapplication.a(srvrap.o)
                              bin/rtsmbserverapplication.a(srvssn.o) (RAP_Proc)
bin/rtsmbserverapplication.a(rtpdate.o)
                              bin/rtsmbserverapplication.a(smbutil.o) (rtp_get_date)
bin/rtsmbserverapplication.a(rtpdobj.o)
                              bin/rtsmbserverapplication.a(psmbfile.o) (rtp_file_gfirst)
bin/rtsmbserverapplication.a(rtpfile.o)
                              bin/rtsmbserverapplication.a(psmbfile.o) (rtp_file_open)
bin/rtsmbserverapplication.a(rtpwfile.o)
                              bin/rtsmbserverapplication.a(psmbfile.o) (rtp_wfile_open)
bin/rtsmbserverapplication.a(ecb_enc.o)
                              bin/rtsmbserverapplication.a(smbutil.o) (rtsmb_des_ecb_encrypt)
bin/rtsmbserverapplication.a(hmac_md5.o)
                              bin/rtsmbserverapplication.a(smbutil.o) (hmac_md5)
bin/rtsmbserverapplication.a(md4_dgst.o)
                              bin/rtsmbserverapplication.a(md4_one.o) (RTSMB_MD4_Update)
bin/rtsmbserverapplication.a(md5rsa.o)
                              bin/rtsmbserverapplication.a(hmac_md5.o) (MD5Init)
bin/rtsmbserverapplication.a(set_key.o)
                              bin/rtsmbserverapplication.a(smbutil.o) (rtsmb_des_set_odd_parity)
bin/rtsmbserverapplication.a(smbsjis.o)
                              bin/rtsmbserverapplication.a(smbutil.o) (rtsmb_jis_to_unicode)
bin/rtsmbserverapplication.a(des_enc.o)
                              bin/rtsmbserverapplication.a(ecb_enc.o) (rtsmb_des_encrypt)
/usr/lib/i386-linux-gnu/libc_nonshared.a(elf-init.oS)
                              /usr/lib/gcc/i686-linux-gnu/4.6/../../../i386-linux-gnu/crt1.o (__libc_csu_init)
/usr/lib/i386-linux-gnu/libc_nonshared.a(stat.oS)
                              bin/rtsmbserverapplication.a(rtpdobj.o) (stat)

Allocating common symbols
Common symbol       size              file

cnv_msg             0x64              bin/rtsmbserverapplication.a(smbdebug.o)
rtsmb_srv_cli_current_job
                    0x14              bin/rtsmbserverapplication.a(srvcli.o)
ns_globalName       0x11              bin/rtsmbserverapplication.a(srvnbns.o)
ns_globalNameAbrv   0x11              bin/rtsmbserverapplication.a(srvnbns.o)
ns_groupName        0x11              bin/rtsmbserverapplication.a(srvnbns.o)
ns_groupNameAbrv    0x11              bin/rtsmbserverapplication.a(srvnbns.o)
ns_netName          0x11              bin/rtsmbserverapplication.a(srvnbns.o)
ns_netNameAbrv      0x11              bin/rtsmbserverapplication.a(srvnbns.o)
printer_handle      0x10              bin/rtsmbserverapplication.a(psmbos.o)
go                  0x4               bin/rtsmbserverapplication.a(serverexample.o)
net_lastRemoteHost_port
                    0x4               bin/rtsmbserverapplication.a(srvnet.o)
net_nsSock          0x4               bin/rtsmbserverapplication.a(srvnet.o)
net_ssnSock         0x4               bin/rtsmbserverapplication.a(srvnet.o)
prtsmb_browse_ctx   0x4               bin/rtsmbserverapplication.a(smbbrcfg.o)
net_lastRemoteHost_ip
                    0x4               bin/rtsmbserverapplication.a(srvnet.o)

Discarded input sections

 .note.GNU-stack
                0x00000000        0x0 /usr/lib/gcc/i686-linux-gnu/4.6/../../../i386-linux-gnu/crt1.o
 .gnu_debuglink
                0x00000000        0xc /usr/lib/gcc/i686-linux-gnu/4.6/../../../i386-linux-gnu/crt1.o
 .note.GNU-stack
                0x00000000        0x0 /usr/lib/gcc/i686-linux-gnu/4.6/../../../i386-linux-gnu/crti.o
 .gnu_debuglink
                0x00000000        0xc /usr/lib/gcc/i686-linux-gnu/4.6/../../../i386-linux-gnu/crti.o
 .note.GNU-stack
                0x00000000        0x0 /usr/lib/gcc/i686-linux-gnu/4.6/crtbegin.o
 .note.GNU-stack
                0x00000000        0x0 bin/rtsmbserverapplication.o
 .note.GNU-stack
                0x00000000        0x0 bin/rtsmbserverapplication.a(serverexample.o)
 .note.GNU-stack
                0x00000000        0x0 bin/rtsmbserverapplication.a(rtpscnv.o)
 .note.GNU-stack
                0x00000000        0x0 bin/rtsmbserverapplication.a(rtpstr.o)
 .note.GNU-stack
                0x00000000        0x0 bin/rtsmbserverapplication.a(rtpnet.o)
 .note.GNU-stack
                0x00000000        0x0 bin/rtsmbserverapplication.a(rtpterm.o)
 .note.GNU-stack
                0x00000000        0x0 bin/rtsmbserverapplication.a(smbnet.o)
 .note.GNU-stack
                0x00000000        0x0 bin/rtsmbserverapplication.a(srvapi.o)
 .note.GNU-stack
                0x00000000        0x0 bin/rtsmbserverapplication.a(srvarg.o)
 .note.GNU-stack
                0x00000000        0x0 bin/rtsmbserverapplication.a(srvauth.o)
 .note.GNU-stack
                0x00000000        0x0 bin/rtsmbserverapplication.a(srvbrws.o)
 .note.GNU-stack
                0x00000000        0x0 bin/rtsmbserverapplication.a(srvcfg.o)
 .note.GNU-stack
                0x00000000        0x0 bin/rtsmbserverapplication.a(srvglue.o)
 .note.GNU-stack
                0x00000000        0x0 bin/rtsmbserverapplication.a(srvnbns.o)
 .note.GNU-stack
                0x00000000        0x0 bin/rtsmbserverapplication.a(srvnet.o)
 .note.GNU-stack
                0x00000000        0x0 bin/rtsmbserverapplication.a(srvrsrcs.o)
 .note.GNU-stack
                0x00000000        0x0 bin/rtsmbserverapplication.a(srvshare.o)
 .note.GNU-stack
                0x00000000        0x0 bin/rtsmbserverapplication.a(srvssn.o)
 .note.GNU-stack
                0x00000000        0x0 bin/rtsmbserverapplication.a(srvtran2.o)
 .note.GNU-stack
                0x00000000        0x0 bin/rtsmbserverapplication.a(srvutil.o)
 .note.GNU-stack
                0x00000000        0x0 bin/rtsmbserverapplication.a(rtpchar.o)
 .note.GNU-stack
                0x00000000        0x0 bin/rtsmbserverapplication.a(rtprand.o)
 .note.GNU-stack
                0x00000000        0x0 bin/rtsmbserverapplication.a(rtpwchar.o)
 .note.GNU-stack
                0x00000000        0x0 bin/rtsmbserverapplication.a(rtpwcs.o)
 .note.GNU-stack
                0x00000000        0x0 bin/rtsmbserverapplication.a(rtpdebug.o)
 .note.GNU-stack
                0x00000000        0x0 bin/rtsmbserverapplication.a(rtpsignl.o)
 .note.GNU-stack
                0x00000000        0x0 bin/rtsmbserverapplication.a(rtpthrd.o)
 .note.GNU-stack
                0x00000000        0x0 bin/rtsmbserverapplication.a(rtptime.o)
 .note.GNU-stack
                0x00000000        0x0 bin/rtsmbserverapplication.a(md4_one.o)
 .note.GNU-stack
                0x00000000        0x0 bin/rtsmbserverapplication.a(psmbfile.o)
 .note.GNU-stack
                0x00000000        0x0 bin/rtsmbserverapplication.a(psmbnet.o)
 .note.GNU-stack
                0x00000000        0x0 bin/rtsmbserverapplication.a(psmbos.o)
 .note.GNU-stack
                0x00000000        0x0 bin/rtsmbserverapplication.a(smbbrbuf.o)
 .note.GNU-stack
                0x00000000        0x0 bin/rtsmbserverapplication.a(smbbrcfg.o)
 .note.GNU-stack
                0x00000000        0x0 bin/rtsmbserverapplication.a(smbdebug.o)
 .note.GNU-stack
                0x00000000        0x0 bin/rtsmbserverapplication.a(smbglue.o)
 .note.GNU-stack
                0x00000000        0x0 bin/rtsmbserverapplication.a(smbnb.o)
 .note.GNU-stack
                0x00000000        0x0 bin/rtsmbserverapplication.a(smbnbds.o)
 .note.GNU-stack
                0x00000000        0x0 bin/rtsmbserverapplication.a(smbnbns.o)
 .note.GNU-stack
                0x00000000        0x0 bin/rtsmbserverapplication.a(smbnbss.o)
 .note.GNU-stack
                0x00000000        0x0 bin/rtsmbserverapplication.a(smbpack.o)
 .note.GNU-stack
                0x00000000        0x0 bin/rtsmbserverapplication.a(smbread.o)
 .note.GNU-stack
                0x00000000        0x0 bin/rtsmbserverapplication.a(smbutil.o)
 .note.GNU-stack
                0x00000000        0x0 bin/rtsmbserverapplication.a(srvans.o)
 .note.GNU-stack
                0x00000000        0x0 bin/rtsmbserverapplication.a(srvassrt.o)
 .note.GNU-stack
                0x00000000        0x0 bin/rtsmbserverapplication.a(srvbrbak.o)
 .note.GNU-stack
                0x00000000        0x0 bin/rtsmbserverapplication.a(srvbrbuf.o)
 .note.GNU-stack
                0x00000000        0x0 bin/rtsmbserverapplication.a(srvcli.o)
 .note.GNU-stack
                0x00000000        0x0 bin/rtsmbserverapplication.a(srvcmds.o)
 .note.GNU-stack
                0x00000000        0x0 bin/rtsmbserverapplication.a(srvfio.o)
 .note.GNU-stack
                0x00000000        0x0 bin/rtsmbserverapplication.a(srvnbss.o)
 .note.GNU-stack
                0x00000000        0x0 bin/rtsmbserverapplication.a(srvrap.o)
 .note.GNU-stack
                0x00000000        0x0 bin/rtsmbserverapplication.a(rtpdate.o)
 .note.GNU-stack
                0x00000000        0x0 bin/rtsmbserverapplication.a(rtpdobj.o)
 .note.GNU-stack
                0x00000000        0x0 bin/rtsmbserverapplication.a(rtpfile.o)
 .note.GNU-stack
                0x00000000        0x0 bin/rtsmbserverapplication.a(rtpwfile.o)
 .note.GNU-stack
                0x00000000        0x0 bin/rtsmbserverapplication.a(ecb_enc.o)
 .note.GNU-stack
                0x00000000        0x0 bin/rtsmbserverapplication.a(hmac_md5.o)
 .note.GNU-stack
                0x00000000        0x0 bin/rtsmbserverapplication.a(md4_dgst.o)
 .note.GNU-stack
                0x00000000        0x0 bin/rtsmbserverapplication.a(md5rsa.o)
 .note.GNU-stack
                0x00000000        0x0 bin/rtsmbserverapplication.a(set_key.o)
 .note.GNU-stack
                0x00000000        0x0 bin/rtsmbserverapplication.a(smbsjis.o)
 .note.GNU-stack
                0x00000000        0x0 bin/rtsmbserverapplication.a(des_enc.o)
 .group         0x00000000        0x8 /usr/lib/i386-linux-gnu/libc_nonshared.a(elf-init.oS)
 .note.GNU-stack
                0x00000000        0x0 /usr/lib/i386-linux-gnu/libc_nonshared.a(elf-init.oS)
 .group         0x00000000        0x8 /usr/lib/i386-linux-gnu/libc_nonshared.a(stat.oS)
 .text.__i686.get_pc_thunk.bx
                0x00000000        0x4 /usr/lib/i386-linux-gnu/libc_nonshared.a(stat.oS)
 .note.GNU-stack
                0x00000000        0x0 /usr/lib/i386-linux-gnu/libc_nonshared.a(stat.oS)
 .note.GNU-stack
                0x00000000        0x0 /usr/lib/gcc/i686-linux-gnu/4.6/crtend.o
 .note.GNU-stack
                0x00000000        0x0 /usr/lib/gcc/i686-linux-gnu/4.6/../../../i386-linux-gnu/crtn.o
 .gnu_debuglink
                0x00000000        0xc /usr/lib/gcc/i686-linux-gnu/4.6/../../../i386-linux-gnu/crtn.o

Memory map

 ** file header
                0x08048000       0x34
 ** segment headers
                0x08048034      0x120

.interp         0x08048154       0x13
 ** fill        0x08048154       0x13

.note.ABI-tag   0x08048168       0x20
 .note.ABI-tag  0x08048168       0x20 /usr/lib/gcc/i686-linux-gnu/4.6/../../../i386-linux-gnu/crt1.o

.note.gnu.build-id
                0x08048188       0x24
 ** note header
                0x08048188       0x10
 ** zero fill   0x08048198       0x14

.dynsym         0x080481ac      0x630
 ** dynsym      0x080481ac      0x630

.dynstr         0x080487dc      0x4a3
 ** string table
                0x080487dc      0x4a3

.gnu.hash       0x08048c80       0x3c
 ** hash        0x08048c80       0x3c

.gnu.version    0x08048cbc       0xc6
 ** versions    0x08048cbc       0xc6

.gnu.version_r  0x08048d84       0x90
 ** version refs
                0x08048d84       0x90

.rel.dyn        0x08048e14       0x28
 ** dynamic relocs
                0x08048e14       0x28

.rel.plt        0x08048e3c      0x2d8
 ** dynamic relocs
                0x08048e3c      0x2d8

.init           0x08049114       0x2e
 .init          0x08049114       0x1f /usr/lib/gcc/i686-linux-gnu/4.6/../../../i386-linux-gnu/crti.o
                0x08049114                _init
 .init          0x08049133        0x5 /usr/lib/gcc/i686-linux-gnu/4.6/crtbegin.o
 .init          0x08049138        0x5 /usr/lib/gcc/i686-linux-gnu/4.6/crtend.o
 .init          0x0804913d        0x5 /usr/lib/gcc/i686-linux-gnu/4.6/../../../i386-linux-gnu/crtn.o

.plt            0x08049150      0x5c0
 ** PLT         0x08049150      0x5c0

.text           0x08049710    0x49d5c
 .text          0x08049710       0x24 /usr/lib/gcc/i686-linux-gnu/4.6/../../../i386-linux-gnu/crt1.o
                0x08049710                _start
 .text          0x08049734        0x0 /usr/lib/gcc/i686-linux-gnu/4.6/../../../i386-linux-gnu/crti.o
 ** fill        0x08049734        0xc
 .text          0x08049740       0x83 /usr/lib/gcc/i686-linux-gnu/4.6/crtbegin.o
 ** fill        0x080497c3        0x1
 .text          0x080497c4        0xd bin/rtsmbserverapplication.o
                0x080497c4                main
 ** fill        0x080497d1        0x3
 .text          0x080497d4     0x1709 bin/rtsmbserverapplication.a(serverexample.o)
                0x080497d4                rtsmb_main
                0x0804982e                smbservermain
 ** fill        0x0804aedd        0x3
 .text          0x0804aee0      0x408 bin/rtsmbserverapplication.a(rtpscnv.o)
                0x0804aee0                rtp_itoa
                0x0804af36                rtp_ltoa
                0x0804afb9                rtp_ultoa
                0x0804b07c                rtp_strtol
                0x0804b2c7                rtp_strtoul
 .text          0x0804b2e8      0x7b5 bin/rtsmbserverapplication.a(rtpstr.o)
                0x0804b2e8                rtp_stricmp
                0x0804b37c                rtp_stristr
                0x0804b85a                rtp_strlen
                0x0804b487                rtp_strnicmp
                0x0804b3d1                rtp_strncmp
                0x0804b547                rtp_memchr
                0x0804b58d                rtp_memcmp
                0x0804b5f1                rtp_memcpy
                0x0804b62c                rtp_memmove
                0x0804b69a                rtp_memset
                0x0804b6ca                rtp_strcat
                0x0804b813                rtp_strcpy
                0x0804b6fa                rtp_strncat
                0x0804b881                rtp_strncpy
                0x0804b75b                rtp_strchr
                0x0804b78b                rtp_strcmp
                0x0804b8c8                rtp_strrchr
                0x0804b90f                rtp_strstr
                0x0804b964                rtp_memcat
                0x0804b996                rtp_strpbrk
                0x0804b9e5                rtp_strspn
                0x0804ba41                rtp_strcspn
 ** fill        0x0804ba9d        0x3
 .text          0x0804baa0     0x2aa0 bin/rtsmbserverapplication.a(rtpnet.o)
                0x0804baa0                rtp_net_init
                0x0804baaa                rtp_net_exit
                0x0804baaf                rtp_net_socket_stream
                0x0804bb58                rtp_net_socket_stream_dual
                0x0804bc37                rtp_net_socket_datagram
                0x0804bce0                rtp_net_socket_datagram_dual
                0x0804bdbf                rtp_net_bind
                0x0804bf5f                rtp_net_bind_dual
                0x0804dd14                rtp_net_ip_to_str
                0x0804c1be                rtp_net_listen
                0x0804c23a                rtp_net_getpeername
                0x0804ddba                rtp_net_str_to_ip
                0x0804c3d1                rtp_net_getsockname
                0x0804c568                rtp_net_gethostbyname
                0x0804c705                rtp_net_accept
                0x0804c992                rtp_net_connect
                0x0804cb52                rtp_net_connect_dual
                0x0804cda2                rtp_net_is_connected
                0x0804cf85                rtp_net_write_select
                0x0804cf8f                rtp_net_read_select
                0x0804cf99                rtp_net_send
                0x0804d09d                rtp_net_recv
                0x0804d195                rtp_net_sendto
                0x0804d3f9                rtp_net_recvfrom
                0x0804d681                rtp_net_closesocket
                0x0804d704                rtp_net_shutdown
                0x0804d70e                rtp_net_getntoread
                0x0804d718                rtp_net_setblocking
                0x0804d78f                rtp_net_setnagle
                0x0804d799                rtp_net_setlinger
                0x0804d7a3                rtp_net_setreusesock
                0x0804d7ad                rtp_net_setreuseaddr
                0x0804d7b7                rtp_net_settcpnocopy
                0x0804d7c1                rtp_net_setkeepalive
                0x0804d7cb                rtp_net_setmembership
                0x0804da56                rtp_net_setmcastttl
                0x0804dc1d                rtp_net_setbroadcast
                0x0804dcb2                rtp_net_htons
                0x0804dcd0                rtp_net_ntohs
                0x0804dcee                rtp_net_htonl
                0x0804dd01                rtp_net_ntohl
                0x0804df2d                rtp_fd_zero
                0x0804df3b                rtp_fd_set
                0x0804e00c                rtp_fd_isset
                0x0804df86                rtp_fd_clr
                0x0804e05f                rtp_net_select
                0x0804e3ef                _rtp_to_fd_set
                0x0804e366                _fd_set_to_rtp
                0x0804e48d                rtp_net_getifaceaddr
                0x0804e51d                rtp_net_get_node_address
 .text          0x0804e540      0x704 bin/rtsmbserverapplication.a(rtpterm.o)
                0x0804e98e                rtp_term_puts
                0x0804e88a                rtp_term_kbhit
                0x0804e930                rtp_term_getch
                0x0804e95f                rtp_term_putc
                0x0804e9ad                rtp_term_cputs
                0x0804e9db                rtp_term_gets
                0x0804ea8d                rtp_term_promptstring
                0x0804ec12                rtp_term_up_arrow
                0x0804ec1c                rtp_term_down_arrow
                0x0804ec3a                rtp_term_escape_key
                0x0804ec26                rtp_term_left_arrow
                0x0804ec30                rtp_term_right_arrow
 .text          0x0804ec44      0x81a bin/rtsmbserverapplication.a(smbnet.o)
                0x0804ec44                rtsmb_init_port_alt
                0x0804ec71                rtsmb_init_port_well_know
                0x0804ed28                rtsmb_net_read
                0x0804ef5d                rtsmb_net_write
                0x0804efaf                rtsmb_net_read_datagram
                0x0804f1b9                rtsmb_net_ip_to_str
                0x0804f080                rtsmb_net_write_datagram
                0x0804f0e8                rtsmb_net_str_to_ip
                0x0804f239                rtsmb_net_socket_new
                0x0804f34a                rtsmb_net_set_ip
                0x0804f43e                rtsmb_net_get_host_ip
                0x0804f448                rtsmb_net_get_broadcast_ip
                0x0804f452                rtsmb_net_are_valid_ips
 ** fill        0x0804f45e        0x2
 .text          0x0804f460      0xa26 bin/rtsmbserverapplication.a(srvapi.o)
                0x0804f460                rtsmb_srv_read_config
                0x0804f4c3                rtsmb_srv_read_config_uc
                0x0804f4d6                rtsmb_srv_share_add_tree
                0x0804f5d4                rtsmb_srv_share_add_tree_uc
                0x0804f61f                rtsmb_srv_share_add_ipc
                0x0804f632                rtsmb_srv_share_add_printer
                0x0804f75c                rtsmb_srv_share_add_printer_uc
                0x0804f7a7                rtsmb_srv_share_modify
                0x0804f803                rtsmb_srv_share_modify_uc
                0x0804f82b                rtsmb_srv_printer_modify
                0x0804f8b7                rtsmb_srv_printer_modify_uc
                0x0804f8d1                rtsmb_srv_share_remove
                0x0804f929                rtsmb_srv_share_remove_uc
                0x0804f93c                rtsmb_srv_set_mode
                0x0804f956                rtsmb_srv_get_mode
                0x0804f963                rtsmb_srv_register_group
                0x0804f9bb                rtsmb_srv_register_group_uc
                0x0804f9ce                rtsmb_srv_register_user
                0x0804fa4c                rtsmb_srv_register_user_uc
                0x0804fa66                rtsmb_srv_delete_user
                0x0804fac9                rtsmb_delete_user_uc
                0x0804fadc                rtsmb_srv_add_user_to_group
                0x0804fb70                rtsmb_srv_add_user_to_group_uc
                0x0804fb8a                rtsmb_srv_remove_user_from_group
                0x0804fc1e                rtsmb_srv_remove_user_from_group_uc
                0x0804fc38                rtsmb_srv_set_group_permissions
                0x0804fccf                rtsmb_srv_set_group_permissions_uc
                0x0804fcf7                rtsmb_srv_init
                0x0804fd5a                rtsmb_srv_set_ip
                0x0804fd74                rtsmb_srv_cycle
                0x0804fde4                rtsmb_srv_shutdown
                0x0804fe19                rtsmb_srv_disable
                0x0804fe49                rtsmb_srv_enable
 ** fill        0x0804fe86        0x2
 .text          0x0804fe88     0x188c bin/rtsmbserverapplication.a(srvarg.o)
                0x0805162a                RTSMB_ReadArgsFrom
 .text          0x08051714     0x1443 bin/rtsmbserverapplication.a(srvauth.o)
                0x08051714                smbs_display_users
                0x080519c5                Auth_AuthenticateUser
                0x08051d39                Auth_DoPasswordsMatch
                0x08051b94                isInGroup
                0x08051bd0                setMode
                0x08051c76                getMode
                0x08051ce1                mergeAccessRights
                0x08051ede                Auth_BestAccess
                0x08051fd3                Auth_HasAccess
                0x08052033                Auth_RegisterGroup
                0x080521d7                Auth_AssignGroupPermission
                0x0805239c                Auth_RegisterUser
                0x0805264f                Auth_DeleteUser
                0x08052789                Auth_AddUserToGroup
                0x080528dd                Auth_RemoveUserFromGroup
                0x08052a31                Auth_SetMode
                0x08052ac6                Auth_GetMode
                0x08052b01                Auth_Init
 ** fill        0x08052b57        0x1
 .text          0x08052b58     0x1997 bin/rtsmbserverapplication.a(srvbrws.o)
                0x08052b58                rtsmb_srv_browse_get_role
                0x08052b62                rtsmb_srv_browse_get_announcement_interval
                0x08052bc5                rtsmb_srv_browse_get_server_type
                0x08052ff7                rtsmb_srv_browse_get_election_criteria
                0x080530e0                rtsmb_srv_browse_force_election
                0x08053d7f                rtsmb_srv_browse_server_list_remove_all
                0x08053ddc                rtsmb_srv_browse_server_list_add
                0x08053e6e                rtsmb_srv_browse_domain_list_remove_all
                0x08053ece                rtsmb_srv_browse_domain_list_add
                0x08053f66                rtsmb_srv_browse_get_next_wake_timeout
                0x0805404f                rtsmb_srv_browse_restart_announcements
                0x08054090                rtsmb_srv_browse_set_announcement_info
                0x080541d3                rtsmb_srv_browse_init
                0x08054231                rtsmb_srv_browse_shutdown
                0x0805426e                rtsmb_srv_browse_process_message
                0x080543a6                rtsmb_srv_browse_cycle
 ** fill        0x080544ef        0x1
 .text          0x080544f0      0x539 bin/rtsmbserverapplication.a(srvcfg.o)
                0x080544f0                rtsmb_server_config
 ** fill        0x08054a29        0x3
 .text          0x08054a2c      0x237 bin/rtsmbserverapplication.a(srvglue.o)
                0x08054bb3                rtsmb_srv_glue_init
                0x08054c0b                rtsmb_srv_glue_shutdown
 ** fill        0x08054c63        0x1
 .text          0x08054c64     0x24ed bin/rtsmbserverapplication.a(srvnbns.o)
                0x08054c64                rtsmb_srv_nbns_add_name
                0x08054dbf                rtsmb_srv_nbns_remove_name
                0x080566e2                rtsmb_srv_nbns_is_in_name_table
                0x08056390                rtsmb_srv_nbns_init
                0x0805660c                rtsmb_srv_nbns_restart
                0x0805678f                rtsmb_srv_nbns_get_ip_from_cache
                0x08056abd                rtsmb_srv_nbns_invalidate_one_name
                0x08056a36                rtsmb_srv_nbns_invalidate_ip
                0x08056b7d                rtsmb_srv_nbns_invalidate_all_names
                0x08056c3d                rtsmb_srv_nbns_cycle
                0x08056c5a                rtsmb_srv_nbns_shutdown
                0x08056c6e                rtsmb_srv_nbns_process_packet
                0x08056ea1                rtsmb_srv_nbns_is_in_name_cache
                0x08056f05                rtsmb_srv_nbns_start_query_for_name
                0x08057013                rtsmb_srv_nbns_get_our_group_full
                0x0805701d                rtsmb_srv_nbns_get_our_group
                0x08057027                rtsmb_srv_nbns_get_our_name_full
                0x08057031                rtsmb_srv_nbns_get_our_name
                0x0805703b                rtsmb_srv_nbns_get_next_wake_timeout
 ** fill        0x08057151        0x3
 .text          0x08057154      0xf50 bin/rtsmbserverapplication.a(srvnet.o)
                0x08057154                rtsmb_srv_net_get_nbns_socket
                0x0805715e                rtsmb_srv_net_get_nbss_socket
                0x08057168                rtsmb_srv_net_get_last_remote_ip
                0x08057172                rtsmb_srv_net_get_last_remote_port
                0x08057245                rtsmb_srv_net_thread_close
                0x08057545                rtsmb_srv_net_init
                0x08057d97                rtsmb_srv_net_cycle
                0x0805808a                rtsmb_srv_net_get_host_ip
                0x08057fa8                rtsmb_srv_net_shutdown
                0x08058007                rtsmb_srv_net_set_ip
                0x08058097                rtsmb_srv_net_get_broadcast_ip
 .text          0x080580a4      0x3f4 bin/rtsmbserverapplication.a(srvrsrcs.o)
                0x080580a4                claimSession
                0x080580ef                releaseSession
                0x0805813a                firstSession
                0x080581b9                nextSession
                0x0805825e                allocateSession
                0x08058326                freeSession
                0x080583ba                allocateBigBuffer
                0x0805844c                freeBigBuffer
 .text          0x08058498     0x1922 bin/rtsmbserverapplication.a(srvshare.o)
                0x08058498                SR_Init
                0x08058507                SR_ServiceToStr
                0x08058534                SR_ResourceById
                0x0805855d                SR_FirstResource
                0x080585cf                SR_NextResource
                0x08058669                SR_GetTreeId
                0x08058812                SR_GetTreeIdFromName
                0x080588fc                SR_AddDiskTree
                0x08058f78                SR_AddIPC
                0x080591bd                SR_AddPrinter
                0x0805996d                SR_ModifyShare
                0x08059ae7                SR_ModifyPrinter
                0x08059c47                SR_RemoveShare
 ** fill        0x08059dba        0x2
 .text          0x08059dbc     0xc96e bin/rtsmbserverapplication.a(srvssn.o)
                0x08059e0f                ProcSetupAndx
                0x080648f4                User_Init
                0x0805a3f1                ProcTreeConAndx
                0x080647fc                Tree_Init
                0x0805aaba                ProcOpenAndx
                0x0805aede                ProcNTCreateAndx
                0x0805b43a                ProcReadAndx
                0x0805b6fc                ProcWriteAndx
                0x0805b9eb                ProcLogoffAndx
                0x08064964                User_Shutdown
                0x0805bb6b                ProcLockingAndx
                0x0805bcb1                ProcAndx
                0x0805bfe9                ProcNegotiateProtocol
                0x0805c8cc                ProcTreeConnect
                0x0805ccbf                ProcTreeDisconnect
                0x0806483c                Tree_Shutdown
                0x0805ce9f                ProcSearch
                0x0805d8a4                ProcQueryInformation
                0x0805db2b                ProcQueryInformation2
                0x0805de58                ProcQueryInformationDisk
                0x0805e10e                ProcTransaction
                0x0805e38b                ProcTransaction2
                0x0805ea6a                ProcFindClose2
                0x0805ecc1                ProcCheckDirectory
                0x0805ef08                ProcOpen
                0x0805f403                ProcClose
                0x0805f708                ProcClosePrintFile
                0x0805f9ab                ProcRead
                0x0805fcb4                ProcSeek
                0x0805ff40                ProcDelete
                0x0806040c                ProcWrite
                0x080606df                ProcEcho
                0x08064aa4                SMBS_SendMessage
                0x080608fb                ProcFlush
                0x08060c4f                ProcRename
                0x0806129a                transferFileTo
                0x0806159e                ProcCopyMove
                0x0806211f                ProcCreateDirectory
                0x08062353                isUnusedDir
                0x08062422                ProcDeleteDirectory
                0x080626f3                ProcCreate
                0x08062a3a                ProcCreateTemporary
                0x08062d5f                ProcSetInformation
                0x08062fa4                ProcSetInformation2
                0x080631e3                ProcProcessExit
                0x08063585                ProcWriteAndClose
                0x08063853                ProcReadRaw
                0x08063add                ProcWriteRaw1
                0x08063f79                ProcWriteRaw2
                0x080641e6                ProcOpenPrintFile
                0x0806458a                ProcWritePrintFile
                0x08064b46                SMBS_CloseShare
                0x08064bba                SMBS_InitSessionCtx
                0x08064ce9                SMBS_SetBuffers
                0x08064d3c                SMBS_CloseSession
                0x08064dfc                SMBS_ProcSMBPacket
                0x0806518f                SMBS_ProcSMBBody
 ** fill        0x0806672a        0x2
 .text          0x0806672c     0x322b bin/rtsmbserverapplication.a(srvtran2.o)
                0x0806672c                fillSMB_INFO_ALLOCATION
                0x080667f8                fillSMB_INFO_VOLUME
                0x08066873                fillSMB_QUERY_FS_VOLUME_INFO
                0x080668fc                fillSMB_QUERY_FS_SIZE_INFO
                0x080669d1                fillSMB_QUERY_FS_DEVICE_INFO
                0x08066a11                fillSMB_QUERY_FS_ATTRIBUTE_INFO
                0x08066a7b                fillSMB_INFO_STANDARD
                0x08066ba9                fillSMB_INFO_STANDARD2
                0x08066c8f                fillSMB_INFO_QUERY_EA_SIZE
                0x08066dc2                fillSMB_INFO_QUERY_EA_SIZE2
                0x08066eaf                fillSMB_FIND_FILE_DIRECTORY_INFO
                0x08066f92                fillSMB_FIND_FILE_FULL_DIRECTORY_INFO
                0x0806707c                fillSMB_FIND_FILE_BOTH_DIRECTORY_INFO
                0x080671b9                fillSMB_FIND_FILE_NAMES_INFO
                0x0806720b                fillSMB_INFO_IS_NAME_VALID
                0x08067269                fillSMB_QUERY_FILE_BASIC_INFO
                0x080672f8                fillSMB_QUERY_FILE_STANDARD_INFO
                0x08067361                fillSMB_QUERY_FILE_EA_INFO
                0x0806739a                fillSMB_QUERY_FILE_NAME_INFO
                0x080673e0                fillSMB_QUERY_FILE_COMPRESSION_INFO
                0x08067434                fillSMB_QUERY_FILE_STREAM_INFO
                0x0806748c                fillFindWithInfo
                0x080678ae                fillQueryWithInfo
                0x08067ba3                ST2_FindFirst2
                0x080680b2                ST2_FindNext2
                0x0806847f                ST2_QueryFileInfo
                0x08068634                ST2_QueryPathInfo
                0x080687c0                ST2_QueryFSInformation
                0x08068a6d                ST2_ProcSetInfoStandard
                0x0806933f                ST2_SetPathInformation
                0x08069547                ST2_SetFileInformation
 ** fill        0x08069957        0x1
 .text          0x08069958     0x1df2 bin/rtsmbserverapplication.a(srvutil.o)
                0x08069958                SMBU_ShortenSMBPath
                0x08069986                SMBU_MakeError
                0x080699b6                SMBU_FillError
                0x08069a51                SMBU_AddError
                0x08069a9b                SMBU_GetUser
                0x08069b14                SMBU_GetInternalFid
                0x08069c33                SMBU_GetInternalFidFromName
                0x08069d24                SMBU_GetFidError
                0x08069e0f                SMBU_SetFidError
                0x08069eee                SMBU_SetInternalFid
                0x0806a410                SMBU_GetTree
                0x0806a208                SMBU_ClearInternalFid
                0x0806a520                SMBU_GetFileNameFromFid
                0x0806a5ad                SMBU_DoesContain
                0x0806a61c                SMBU_GetPath
                0x0806a6a3                SMBU_GetFilename
                0x0806a6e7                smbu_patcmp
                0x0806a8e7                whatWasMatched
                0x0806aa23                SMBU_FitWildcards
                0x0806ab8e                SMBU_DOSifyName
                0x0806af7a                SMBU_DOSifyPath
                0x0806b07a                SMBU_NormalizeFileName
                0x0806b082                SMBU_WriteToFile
                0x0806b28e                SMBU_TemporaryFileName
                0x0806b44a                SMBU_MakePath
                0x0806b4f7                SMBU_PrintFile
 ** fill        0x0806b74a        0x2
 .text          0x0806b74c      0x184 bin/rtsmbserverapplication.a(rtpchar.o)
                0x0806b74c                rtp_isalnum
                0x0806b78f                rtp_iscntrl
                0x0806b7b2                rtp_isdigit
                0x0806b7d1                rtp_isprint
                0x0806b7f0                rtp_isspace
                0x0806b824                rtp_isupper
                0x0806b841                rtp_isxdigit
                0x0806b884                rtp_tolower
                0x0806b8ab                rtp_toupper
 .text          0x0806b8d0       0x34 bin/rtsmbserverapplication.a(rtprand.o)
                0x0806b8d0                rtp_rand
                0x0806b8f7                rtp_srand
 .text          0x0806b904      0x1aa bin/rtsmbserverapplication.a(rtpwchar.o)
                0x0806b904                rtp_iswalnum
                0x0806b953                rtp_iswcntrl
                0x0806b976                rtp_iswdigit
                0x0806b999                rtp_iswprint
                0x0806b9bc                rtp_iswspace
                0x0806b9f0                rtp_iswupper
                0x0806ba0d                rtp_iswxdigit
                0x0806ba5c                rtp_towlower
                0x0806ba85                rtp_towupper
 ** fill        0x0806baae        0x2
 .text          0x0806bab0      0x813 bin/rtsmbserverapplication.a(rtpwcs.o)
                0x0806bab0                rtp_wcsicmp
                0x0806bb4a                rtp_wcsistr
                0x0806be72                rtp_wcslen
                0x0806bc6c                rtp_wcsnicmp
                0x0806bba0                rtp_wcsncmp
                0x0806bd32                rtp_wcscat
                0x0806be31                rtp_wcscpy
                0x0806bd62                rtp_wcschr
                0x0806bd93                rtp_wcscmp
                0x0806be9a                rtp_wcsncpy
                0x0806bee3                rtp_wcsrchr
                0x0806bf2a                rtp_wcsstr
                0x0806bf80                rtp_wcstol
                0x0806c1bc                rtp_wcsncat
                0x0806c203                rtp_wcsspn
                0x0806c263                rtp_wcscspn
 ** fill        0x0806c2c3        0x1
 .text          0x0806c2c4      0x1a9 bin/rtsmbserverapplication.a(rtpdebug.o)
                0x0806c2c4                _rtp_debug_output_str
                0x0806c371                _rtp_debug_output_int
                0x0806c3e2                _rtp_debug_syslog_printf
 ** fill        0x0806c46d        0x3
 .text          0x0806c470      0x451 bin/rtsmbserverapplication.a(rtpsignl.o)
                0x0806c470                _rtp_sig_semaphore_alloc
                0x0806c4fe                _rtp_sig_semaphore_free
                0x0806c530                _rtp_sig_semaphore_wait_timed
                0x0806c615                _rtp_sig_semaphore_clear
                0x0806c635                _rtp_sig_semaphore_wait
                0x0806c6d5                _rtp_sig_semaphore_signal
                0x0806c716                _rtp_sig_semaphore_signal_isr
                0x0806c757                _rtp_sig_mutex_alloc
                0x0806c807                _rtp_sig_mutex_free
                0x0806c845                _rtp_sig_mutex_claim_timed
                0x0806c84f                _rtp_sig_mutex_claim
                0x0806c88e                _rtp_sig_mutex_release
 ** fill        0x0806c8c1        0x3
 .text          0x0806c8c4      0x337 bin/rtsmbserverapplication.a(rtpthrd.o)
                0x0806c8c4                rtp_threads_init
                0x0806c8fa                rtp_threads_shutdown
                0x0806c90f                rtp_thread_spawn
                0x0806cbd4                _rtp_allocThreadContext
                0x0806cbe8                _rtp_freeThreadContext
                0x0806cb83                _rtp_threadFunction
                0x0806ca98                rtp_thread_handle
                0x0806cac9                rtp_thread_user_data
                0x0806caf9                rtp_thread_user_data_by_handle
                0x0806cb0e                rtp_thread_name
                0x0806cb3e                rtp_thread_name_by_handle
                0x0806cb53                rtp_thread_sleep
                0x0806cb6f                rtp_thread_yield
 ** fill        0x0806cbfb        0x1
 .text          0x0806cbfc       0x6f bin/rtsmbserverapplication.a(rtptime.o)
                0x0806cbfc                rtp_get_system_msec
                0x0806cc47                rtp_get_system_sec
 ** fill        0x0806cc6b        0x1
 .text          0x0806cc6c       0x69 bin/rtsmbserverapplication.a(md4_one.o)
                0x0806cc6c                RTSMB_MD4
 ** fill        0x0806ccd5        0x3
 .text          0x0806ccd8     0x1267 bin/rtsmbserverapplication.a(psmbfile.o)
                0x0806ccd8                rtsmb_fileport_init
                0x0806ce81                rtplatform_open
                0x0806cf4a                rtplatform_read
                0x0806cf7e                rtplatform_write
                0x0806cfd8                rtplatform_lseek
                0x0806d00c                rtplatform_truncate
                0x0806d03b                rtplatform_flush
                0x0806cfb2                rtplatform_close
                0x0806d04e                rtplatform_rename
                0x0806d0a2                rtplatform_delete
                0x0806d0e8                rtplatform_mkdir
                0x0806d12e                rtplatform_rmdir
                0x0806d174                rtplatform_setcwd
                0x0806d1ba                rtplatform_pwd
                0x0806d20e                rtplatform_gfirst
                0x0806d49c                rtplatform_gnext
                0x0806d596                rtplatform_gdone
                0x0806d5bc                rtplatform_stat
                0x0806d658                rtplatform_chmode
                0x0806d6ba                rtplatform_get_free
                0x0806d738                rtplatform_set_time
                0x0806ceff                rtplatform_wopen
                0x0806d078                rtplatform_wrename
                0x0806d0c5                rtplatform_wdelete
                0x0806d10b                rtplatform_wmkdir
                0x0806d151                rtplatform_wrmdir
                0x0806d197                rtplatform_wsetcwd
                0x0806d1e4                rtplatform_wpwd
                0x0806d389                rtplatform_wgfirst
                0x0806d519                rtplatform_wgnext
                0x0806d60a                rtplatform_wstat
                0x0806d689                rtplatform_wchmode
                0x0806d6f9                rtplatform_wget_free
                0x0806d9a5                rtplatform_translate_dstat
                0x0806dc93                rtplatform_translate_fstat
 ** fill        0x0806df3f        0x1
 .text          0x0806df40      0x14c bin/rtsmbserverapplication.a(psmbnet.o)
                0x0806df40                rtsmb_netport_select_n_for_read
 .text          0x0806e08c      0x128 bin/rtsmbserverapplication.a(psmbos.o)
                0x0806e08c                rtsmb_osport_printer_init
                0x0806e0a9                rtsmb_osport_printer_open
                0x0806e11c                rtsmb_osport_printer_write
                0x0806e16f                rtsmb_osport_printer_close
 .text          0x0806e1b4     0x18a5 bin/rtsmbserverapplication.a(smbbrbuf.o)
                0x0806e1b4                rtsmb_nbds_fill_header
                0x0806e426                rtsmb_nbds_read_header
                0x0806e6a6                rtsmb_nbds_fill_smb_header
                0x0806e98d                rtsmb_nbds_read_smb_header
                0x0806ec9e                rtsmb_nbds_fill_transaction
                0x0806f0be                rtsmb_nbds_read_transaction
                0x0806f582                rtsmb_nbds_read_get_backup_list
                0x0806f637                rtsmb_nbds_fill_get_backup_list
                0x0806f6e4                rtsmb_nbds_fill_whole_backup_list
 ** fill        0x0806fa59        0x3
 .text          0x0806fa5c       0x99 bin/rtsmbserverapplication.a(smbbrcfg.o)
                0x0806fa5c                rtsmb_browse_config
 ** fill        0x0806faf5        0x3
 .text          0x0806faf8       0x99 bin/rtsmbserverapplication.a(smbdebug.o)
                0x0806faf8                _rtsmb_debug_output_str
                0x0806fb59                _rtsmb_debug_output_int
                0x0806fb75                _rtsmb_debug_output_dint
 ** fill        0x0806fb91        0x3
 .text          0x0806fb94        0x0 bin/rtsmbserverapplication.a(smbglue.o)
 .text          0x0806fb94      0x1fd bin/rtsmbserverapplication.a(smbnb.o)
                0x0806fb94                rtsmb_nb_fill_name
                0x0806fc88                rtsmb_nb_read_name
 ** fill        0x0806fd91        0x3
 .text          0x0806fd94      0xa67 bin/rtsmbserverapplication.a(smbnbds.o)
                0x0806fd94                smb_print_unicode
                0x0806fe27                rtsmb_nbds_write
                0x0806fe66                rtsmb_nbds_get_next_datagram_id
                0x0806fe7f                rtsmb_nbds_get_last_remote_name
                0x0806fe89                rtsmb_nbds_get_last_remote_port
                0x0806fe93                rtsmb_nbds_get_last_remote_ip
                0x08070276                rtsmb_nbds_init
                0x0807036e                rtsmb_nbds_cycle
                0x08070685                rtsmb_nbds_shutdown
                0x080706e2                rtsmb_nbds_get_backup_server
                0x080707f1                rtsmb_nbds_get_socket
 ** fill        0x080707fb        0x1
 .text          0x080707fc     0x1145 bin/rtsmbserverapplication.a(smbnbns.o)
                0x080707fc                rtsmb_nbns_fill_header
                0x08070977                rtsmb_nbns_read_header
                0x08070ad5                rtsmb_nbns_fill_question
                0x08070be1                rtsmb_nbns_read_question
                0x08070cf0                rtsmb_nbns_fill_resource
                0x08070eed                rtsmb_nbns_read_resource
                0x08071177                rtsmb_nbns_fill_name_query
                0x0807128a                rtsmb_nbns_read_name_query_response
                0x08071544                rtsmb_nbns_query_name
                0x080715cd                rtsmb_nbns_query_cycle
                0x0807185d                rtsmb_nbns_get_name_query_response
                0x08071917                rtsmb_nbns_close_query
 ** fill        0x08071941        0x3
 .text          0x08071944      0x33e bin/rtsmbserverapplication.a(smbnbss.o)
                0x08071944                rtsmb_nbss_fill_request
                0x08071a1a                rtsmb_nbss_read_request
                0x08071b14                rtsmb_nbss_fill_header
                0x08071bbb                rtsmb_nbss_read_header
 ** fill        0x08071c82        0x2
 .text          0x08071c84      0x53d bin/rtsmbserverapplication.a(smbpack.o)
                0x08071c84                rtsmb_pack_add_unsafe
                0x08071cad                rtsmb_pack_add
                0x08071cf4                rtsmb_pack_add_ascii_string
                0x08071e03                rtsmb_pack_add_unicode_string
                0x08071ee6                rtsmb_pack_add_string
                0x08072018                rtsmb_pack_add_byte
                0x08071f92                rtsmb_pack_add_string_direct
                0x08071ff0                rtsmb_pack_add_byte_unsafe
                0x08072047                rtsmb_pack_add_word_unsafe
                0x0807209c                rtsmb_pack_add_word
                0x080720f8                rtsmb_pack_add_dword_unsafe
                0x08072159                rtsmb_pack_add_dword
 ** fill        0x080721c1        0x3
 .text          0x080721c4      0x641 bin/rtsmbserverapplication.a(smbread.o)
                0x080721c4                rtsmb_read_unsafe
                0x080721ed                rtsmb_read
                0x08072242                rtsmb_read_skip
                0x0807262c                rtsmb_read_byte
                0x080726b3                rtsmb_read_word
                0x0807243c                rtsmb_read_string
                0x080724f0                rtsmb_read_string_bytes
                0x0807260a                rtsmb_read_byte_unsafe
                0x08072655                rtsmb_read_word_unsafe
                0x08072718                rtsmb_read_dword_unsafe
                0x0807278b                rtsmb_read_dword
 ** fill        0x08072805        0x3
 .text          0x08072808     0x2827 bin/rtsmbserverapplication.a(smbutil.o)
                0x08072cd9                rtsmb_util_latin_to_unicode
                0x08072ad2                rtsmb_util_unicode_to_latin
                0x080732a5                rtsmb_stricmp_latin
                0x080735ac                rtsmb_strnicmp_latin
                0x08072d27                rtsmb_util_n_latin_to_unicode
                0x08072b28                rtsmb_util_n_unicode_to_latin
                0x08072b82                rtsmb_util_shiftjis_to_unicode
                0x08072963                rtsmb_util_unicode_to_shiftjis
                0x08073383                rtsmb_stricmp_sjis
                0x080736a8                rtsmb_strnicmp_sjis
                0x08072c17                rtsmb_util_n_shiftjis_to_unicode
                0x08072a16                rtsmb_util_n_unicode_to_shiftjis
                0x0807288b                rtsmb_util_unicode_to_ascii
                0x080728ba                rtsmb_util_ascii_to_unicode
                0x080728e9                rtsmb_util_n_unicode_to_ascii
                0x08072926                rtsmb_util_n_ascii_to_unicode
                0x08072de8                rtsmb_util_wlen
                0x08072d72                rtsmb_util_unicode_to_rtsmb
                0x08072e59                rtsmb_util_wcpy
                0x08072d8c                rtsmb_util_ascii_to_rtsmb
                0x08072dad                rtsmb_util_rtsmb_to_ascii
                0x08072dce                rtsmb_util_rtsmb_to_unicode
                0x08072e10                rtsmb_util_wncpy
                0x08072ea4                rtsmb_util_wncmp
                0x08072f2d                rtsmb_util_wcmp
                0x08072fc9                rtsmb_util_wcat
                0x08073035                rtsmb_util_latin_toupper
                0x0807305c                rtsmb_util_wtoupper
                0x080730d9                rtsmb_casecmp
                0x080731bd                rtsmb_stricmp_uc
                0x08073106                rtsmb_strcasecmp
                0x08073148                rtsmb_casencmp
                0x08073175                rtsmb_strcasencmp
                0x080734a6                rtsmb_strnicmp_uc
                0x080737e5                rtsmb_util_string_to_upper
                0x0807383b                rtsmb_util_latin_string_toupper
                0x0807388f                rtsmb_util_make_netbios_name
                0x08073932                rtsmb_util_unmake_netbios_name
                0x0807399d                rtsmb_util_unicode_patcmp
                0x08073b83                rtsmb_util_ascii_patcmp
                0x08073d15                rtsmb_util_rtsmb_patcmp
                0x08073f5b                cli_util_encrypt_password_pre_nt
                0x08074045                cli_util_encrypt_password_nt
                0x0807415f                cli_util_encrypt_password_lmv2
                0x0807450e                rtsmb_util_time_ms_to_unix
                0x080745cd                rtsmb_util_time_unix_to_date
                0x080747f5                rtsmb_util_time_ms_to_date
                0x08074826                rtsmb_util_time_date_to_ms
                0x080748e3                rtsmb_util_time_date_to_unix
                0x08074db0                rtsmb_util_time_unix_to_ms
                0x08074850                rtsmb_util_time_rtp_date_to_ms
                0x08074a0c                rtsmb_util_time_rtp_date_to_unix
                0x080748b2                rtsmb_util_time_ms_to_rtp_date
                0x08074af9                rtsmb_util_time_unix_to_rtp_date
                0x08074d1a                rtsmb_util_get_current_filetime
                0x08074f20                rtsmb_util_smb_to_rtsmb_attributes
                0x08074fad                rtsmb_util_rtsmb_to_smb_attributes
 ** fill        0x0807502f        0x1
 .text          0x08075030     0x9a7d bin/rtsmbserverapplication.a(srvans.o)
                0x080750ac                srv_cmd_fill_header
                0x08075393                srv_cmd_fill_negotiate_bad
                0x08075446                srv_cmd_fill_negotiate_pre_nt
                0x0807584b                srv_cmd_fill_negotiate_nt
                0x08075c61                srv_cmd_fill_echo
                0x08075d5a                srv_cmd_fill_session_setup_and_x
                0x0807602e                srv_cmd_fill_logoff_and_x
                0x08076174                srv_cmd_fill_tree_connect_and_x_pre_lanman
                0x08076389                srv_cmd_fill_tree_connect_and_x_lanman
                0x080765d9                srv_cmd_fill_read_and_x
                0x08076947                srv_cmd_fill_write_and_x
                0x08076b32                srv_cmd_fill_open_and_x
                0x08076eb4                srv_cmd_fill_tree_disconnect
                0x08076ece                srv_cmd_fill_create_temporary
                0x08077037                srv_cmd_fill_seek
                0x080770e6                srv_cmd_fill_flush
                0x08077100                srv_cmd_fill_close
                0x0807711a                srv_cmd_fill_close_print_file
                0x08077134                srv_cmd_fill_delete
                0x0807714e                srv_cmd_fill_rename
                0x08077168                srv_cmd_fill_move
                0x080772c6                srv_cmd_fill_copy
                0x08077424                srv_cmd_fill_delete_directory
                0x0807743e                srv_cmd_fill_check_directory
                0x08077458                srv_cmd_fill_create_directory
                0x08077472                srv_cmd_fill_find_close2
                0x0807748c                srv_cmd_fill_open_print_file
                0x0807753f                srv_cmd_fill_create
                0x080775f2                srv_cmd_fill_open
                0x08077789                srv_cmd_fill_query_information
                0x08077949                srv_cmd_fill_query_information2
                0x08077bcc                srv_cmd_fill_read
                0x08077d97                srv_cmd_fill_search
                0x08077efd                srv_cmd_fill_directory_information_data
                0x0807810b                srv_cmd_fill_set_information
                0x08078125                srv_cmd_fill_set_information2
                0x0807813f                srv_cmd_fill_query_information_disk
                0x080782d8                srv_cmd_fill_tree_connect
                0x080783c6                srv_cmd_fill_write
                0x08078479                srv_cmd_fill_write_and_close
                0x0807852c                srv_cmd_fill_write_print_file
                0x08078546                srv_cmd_fill_write_raw1
                0x080785f9                srv_cmd_fill_write_raw2
                0x080786ac                srv_cmd_fill_process_exit
                0x080786c6                srv_cmd_fill_info_allocation
                0x080787f3                srv_cmd_fill_info_volume
                0x08078916                srv_cmd_fill_query_fs_volume_info
                0x08078ae6                srv_cmd_fill_query_fs_size_info
                0x08078c46                srv_cmd_fill_query_fs_device_info
                0x08078ccd                srv_cmd_fill_query_fs_attribute_info
                0x08078dd3                srv_cmd_fill_transaction
                0x080793ae                srv_cmd_fill_find_file_info_standard
                0x08079786                srv_cmd_fill_find_file_info_query_ea_size
                0x08079b86                srv_cmd_fill_find_file_directory_info
                0x0807a114                srv_cmd_fill_find_file_full_directory_info
                0x0807a6d9                srv_cmd_fill_find_file_both_directory_info
                0x0807adcc                srv_cmd_fill_find_file_names_info
                0x0807b08f                srv_cmd_fill_find_first
                0x0807b1cf                srv_cmd_fill_find_next
                0x0807b2d4                srv_cmd_fill_info_standard
                0x0807b4f5                srv_cmd_fill_info_query_ea_size
                0x0807b74d                srv_cmd_fill_query_file_basic_info
                0x0807b9cc                srv_cmd_fill_query_file_standard_info
                0x0807bb5b                srv_cmd_fill_query_file_ea_info
                0x0807bbae                srv_cmd_fill_query_file_name_info
                0x0807bc4f                srv_cmd_fill_query_file_stream_info
                0x0807be5c                srv_cmd_fill_query_file_compression_info
                0x0807c016                srv_cmd_fill_rap_response
                0x0807c182                srv_cmd_sizeof_rap_wksta_info
                0x0807c22d                srv_cmd_fill_rap_wksta_info
                0x0807c584                srv_cmd_fill_rap_share_enum_header
                0x0807c689                srv_cmd_fill_rap_share_enum_info
                0x0807c8ec                srv_cmd_fill_rap_server_enum_info_0
                0x0807c99f                srv_cmd_fill_rap_server_enum_info_1
                0x0807cc21                srv_cmd_fill_rap_share_info_0
                0x0807ccc1                srv_cmd_fill_rap_share_info_1
                0x0807ce60                srv_cmd_sizeof_rap_printer_queue_info_0
                0x0807ce6a                srv_cmd_fill_rap_server_info_0
                0x0807cf0a                srv_cmd_fill_rap_server_info_1
                0x0807d0d8                srv_cmd_fill_rap_printer_queue_info_0
                0x0807d178                srv_cmd_sizeof_rap_printer_queue_info_1
                0x0807d223                srv_cmd_fill_rap_printer_queue_info_1
                0x0807d6f1                srv_cmd_sizeof_rap_printer_queue_info_3
                0x0807d7f9                srv_cmd_fill_rap_printer_queue_info_3
                0x0807ddfd                srv_cmd_sizeof_rap_printer_queue_info_5
                0x0807de25                srv_cmd_fill_rap_printer_queue_info_5
                0x0807decd                srv_cmd_fill_mailslot_header
                0x0807df97                srv_cmd_fill_transaction_cmd
                0x0807e408                srv_cmd_fill_nt_create_and_x
                0x0807e967                srv_cmd_fill_locking_and_x
 ** fill        0x0807eaad        0x3
 .text          0x0807eab0      0x4bd bin/rtsmbserverapplication.a(srvassrt.o)
                0x0807eab0                assertUid
                0x0807eb23                assertTid
                0x0807eb47                assertThisTid
                0x0807eb9e                assertPermission
                0x0807ebd0                assertPermissionForTid
                0x0807ecd9                assertFid
                0x0807ee0d                assertDisk
                0x0807ee6a                assertSid
                0x0807eeeb                assertPath
 ** fill        0x0807ef6d        0x3
 .text          0x0807ef70      0x4ee bin/rtsmbserverapplication.a(srvbrbak.o)
                0x0807f0fd                rtsmb_srv_browse_finish_server_enum
                0x0807f2f9                rtsmb_srv_browse_backup_start
                0x0807f31a                rtsmb_srv_browse_backup_stop
                0x0807f327                rtsmb_srv_browse_backup_cycle
 ** fill        0x0807f45e        0x2
 .text          0x0807f460     0x1ec6 bin/rtsmbserverapplication.a(srvbrbuf.o)
                0x0807f460                rtsmb_srv_browse_fill_host_announcement
                0x0807f71f                rtsmb_srv_browse_read_host_announcement
                0x0807f9d5                rtsmb_srv_browse_read_request_election
                0x0807fb30                rtsmb_srv_browse_fill_request_election
                0x0807fc8b                rtsmb_srv_browse_read_become_backup
                0x0807fd1c                rtsmb_srv_browse_fill_become_backup
                0x0807fd9f                rtsmb_srv_browse_fill_announcement_request
                0x0807fe4c                rtsmb_srv_browse_fill_get_backup_list_response
                0x0807fffe                rtsmb_srv_browse_fill_whole_announcement
                0x080804d9                rtsmb_srv_browse_fill_whole_request_election
                0x08080886                rtsmb_srv_browse_fill_whole_announcement_request
                0x08080c17                rtsmb_srv_browse_fill_whole_get_backup_list_response
                0x08080f93                rtsmb_srv_browse_fill_whole_become_backup
 ** fill        0x08081326        0x2
 .text          0x08081328     0x1dac bin/rtsmbserverapplication.a(srvcli.o)
                0x08081328                rtsmb_srv_cli_connect_to
                0x0808137a                rtsmb_srv_cli_shutdown
                0x080813b1                rtsmb_srv_cli_cycle
                0x0808158d                rtsmb_srv_cli_server_enum
 .text          0x080830d4     0x7322 bin/rtsmbserverapplication.a(srvcmds.o)
                0x0808316d                srv_cmd_read_header
                0x0808347e                srv_cmd_read_negotiate
                0x080835ff                srv_cmd_read_echo
                0x08083726                srv_cmd_read_session_setup_and_x_pre_nt
                0x08083ce7                srv_cmd_read_session_setup_and_x_nt
                0x0808439f                srv_cmd_read_logoff_and_x
                0x0808452d                srv_cmd_read_locking_and_x
                0x08084815                srv_cmd_read_tree_connect_and_x
                0x08084b24                srv_cmd_read_read_and_x
                0x08084e5c                srv_cmd_read_write_and_x
                0x080852a3                srv_cmd_read_open_and_x
                0x0808564d                srv_cmd_read_tree_disconnect
                0x08085667                srv_cmd_read_create_temporary
                0x08085811                srv_cmd_read_seek
                0x0808594f                srv_cmd_read_flush
                0x08085a1f                srv_cmd_read_close
                0x08085b26                srv_cmd_read_close_print_file
                0x08085bf6                srv_cmd_read_delete
                0x08085d73                srv_cmd_read_rename
                0x08085f99                srv_cmd_read_move
                0x0808622d                srv_cmd_read_copy
                0x080864c1                srv_cmd_read_delete_directory
                0x08086608                srv_cmd_read_check_directory
                0x0808674f                srv_cmd_read_create_directory
                0x08086896                srv_cmd_read_find_close2
                0x08086966                srv_cmd_read_open_print_file
                0x08086b1a                srv_cmd_read_create
                0x08086cce                srv_cmd_read_open
                0x08086e82                srv_cmd_read_query_information
                0x08086fc9                srv_cmd_read_query_information2
                0x08087099                srv_cmd_read_read
                0x0808720e                srv_cmd_read_read_raw
                0x08087448                srv_cmd_read_search
                0x0808775b                srv_cmd_read_set_information
                0x0808793c                srv_cmd_read_set_information2
                0x08087b56                srv_cmd_read_query_information_disk
                0x08087b70                srv_cmd_read_tree_connect
                0x08087de2                srv_cmd_read_write
                0x08088027                srv_cmd_read_write_and_close
                0x080882a9                srv_cmd_read_write_print_file
                0x0808844b                srv_cmd_read_write_raw
                0x080887bd                srv_cmd_read_process_exit
                0x080887d7                srv_cmd_read_transaction
                0x08088bd9                srv_cmd_read_query_fs_information
                0x08088c99                srv_cmd_read_find_first2
                0x08088f80                srv_cmd_read_find_next2
                0x08089178                srv_cmd_read_query_file_information
                0x0808925d                srv_cmd_read_query_path_information
                0x080893a6                srv_cmd_read_trans2_set_path_information
                0x080894ef                srv_cmd_read_trans2_set_file_information
                0x08089601                srv_cmd_read_info_standard
                0x08089804                srv_cmd_read_allocation_info
                0x08089889                srv_cmd_read_end_of_file_info
                0x0808990e                srv_cmd_read_basic_info
                0x08089b11                srv_cmd_read_rap_request
                0x08089c74                srv_cmd_read_rap_get_info
                0x08089cf9                srv_cmd_read_rap_server_enum2
                0x08089e39                srv_cmd_read_rap_share_get_info
                0x08089f15                srv_cmd_read_nt_create_and_x
 ** fill        0x0808a3f6        0x2
 .text          0x0808a3f8     0x1e97 bin/rtsmbserverapplication.a(srvfio.o)
                0x0808a902                SMBFIO_ExpandName
                0x0808b02b                SMBFIO_ExpandNameInternal
                0x0808a95b                SMBFIO_Open
                0x0808b08f                SMBFIO_OpenInternal
                0x0808a9c4                SMBFIO_Read
                0x0808b217                SMBFIO_ReadInternal
                0x0808aa1d                SMBFIO_Write
                0x0808b2bc                SMBFIO_WriteInternal
                0x0808aa76                SMBFIO_Seeku32
                0x0808b361                SMBFIO_SeekInternal
                0x0808ab61                SMBFIO_Seek
                0x0808abba                SMBFIO_SetTime
                0x0808b406                SMBFIO_SetTimeInternal
                0x0808ac21                SMBFIO_Truncate
                0x0808b503                SMBFIO_TruncateInternal
                0x0808ac73                SMBFIO_Flush
                0x0808b596                SMBFIO_FlushInternal
                0x0808acbe                SMBFIO_Close
                0x0808b622                SMBFIO_CloseInternal
                0x0808ad09                SMBFIO_Rename
                0x0808b6d7                SMBFIO_RenameInternal
                0x0808ad5b                SMBFIO_Delete
                0x0808b88b                SMBFIO_DeleteInternal
                0x0808ada6                SMBFIO_Mkdir
                0x0808b9c1                SMBFIO_MkdirInternal
                0x0808adf1                SMBFIO_Rmdir
                0x0808baec                SMBFIO_RmdirInternal
                0x0808ae3c                SMBFIO_GFirst
                0x0808bc17                SMBFIO_GFirstInternal
                0x0808ae8e                SMBFIO_GNext
                0x0808bd7c                SMBFIO_GNextInternal
                0x0808aed9                SMBFIO_GDone
                0x0808be44                SMBFIO_GDoneInternal
                0x0808af20                SMBFIO_Stat
                0x0808becd                SMBFIO_StatInternal
                0x0808af72                SMBFIO_Chmode
                0x0808c014                SMBFIO_ChmodeInternal
                0x0808afcb                SMBFIO_GetFree
                0x0808c14e                SMBFIO_GetFreeInternal
 ** fill        0x0808c28f        0x1
 .text          0x0808c290      0x489 bin/rtsmbserverapplication.a(srvnbss.o)
                0x0808c290                rtsmb_srv_nbss_send_session_response
                0x0808c312                rtsmb_srv_nbss_send_session_request
                0x0808c5c4                rtsmb_srv_nbss_process_packet
 ** fill        0x0808c719        0x3
 .text          0x0808c71c     0x1616 bin/rtsmbserverapplication.a(srvrap.o)
                0x0808c71c                NetShareEnum
                0x0808c983                NetServerEnum2
                0x0808ced2                NetServerGetInfo
                0x0808d0e8                NetWkstaGetInfo
                0x0808d2f5                WPrintQGetInfo
                0x0808d7b1                NetShareGetInfo
                0x0808da38                RAP_Proc
 ** fill        0x0808dd32        0x2
 .text          0x0808dd34       0xd7 bin/rtsmbserverapplication.a(rtpdate.o)
                0x0808dd34                rtp_set_date
                0x0808dd3e                rtp_get_date
 ** fill        0x0808de0b        0x1
 .text          0x0808de0c      0x656 bin/rtsmbserverapplication.a(rtpdobj.o)
                0x0808de0c                rtp_file_gfirst
                0x0808dfb0                rtp_file_gnext
                0x0808e073                rtp_file_gdone
                0x0808e094                rtp_file_get_size
                0x0808e10a                rtp_file_get_attrib
                0x0808e1d2                rtp_file_get_name
                0x0808e2c0                rtp_file_get_time
 ** fill        0x0808e462        0x2
 .text          0x0808e464      0xa32 bin/rtsmbserverapplication.a(rtpfile.o)
                0x0808e464                rtp_file_open
                0x0808e5d0                rtp_file_close
                0x0808e645                rtp_file_read
                0x0808e6cb                rtp_file_write
                0x0808e751                rtp_file_lseek
                0x0808e85c                rtp_file_truncate
                0x0808e8d8                rtp_file_flush
                0x0808e94e                rtp_file_rename
                0x0808e9ca                rtp_file_delete
                0x0808ea93                rtp_file_mkdir
                0x0808eb10                rtp_file_rmdir
                0x0808eb85                rtp_file_setcwd
                0x0808ebfa                rtp_file_pwd
                0x0808ec76                rtp_file_chmode
                0x0808ed27                rtp_file_get_free
                0x0808edc7                rtp_file_set_time
                0x0808edd1                rtp_file_get_path_seperator
 ** fill        0x0808ee96        0x2
 .text          0x0808ee98       0x9c bin/rtsmbserverapplication.a(rtpwfile.o)
                0x0808ee98                rtp_wfile_open
                0x0808eeb3                rtp_wfile_rename
                0x0808eebd                rtp_wfile_delete
                0x0808eec7                rtp_wfile_mkdir
                0x0808eed1                rtp_wfile_rmdir
                0x0808eedb                rtp_wfile_setcwd
                0x0808eee5                rtp_wfile_pwd
                0x0808eeef                rtp_wfile_gfirst
                0x0808eef9                rtp_wfile_gnext
                0x0808ef03                rtp_wfile_gdone
                0x0808ef0d                rtp_wfile_get_name
                0x0808ef17                rtp_wfile_chmode
                0x0808ef2a                rtp_wfile_get_free
 .text          0x0808ef34      0x1b7 bin/rtsmbserverapplication.a(ecb_enc.o)
                0x0808ef34                rtsmb_des_options
                0x0808efa1                rtsmb_des_ecb_encrypt
 ** fill        0x0808f0eb        0x1
 .text          0x0808f0ec      0x27b bin/rtsmbserverapplication.a(hmac_md5.o)
                0x0808f0ec                hmac_md5
 ** fill        0x0808f367        0x1
 .text          0x0808f368      0xfbd bin/rtsmbserverapplication.a(md4_dgst.o)
                0x0808f368                RTSMB_MD4_Update
                0x0808fb3f                rtsmb_md4_block_host_order
                0x0808f845                RTSMB_MD4_Transform
                0x0808f88d                RTSMB_MD4_Final
                0x0808faf5                RTSMB_MD4_Init
 ** fill        0x08090325        0x3
 .text          0x08090328      0xef1 bin/rtsmbserverapplication.a(md5rsa.o)
                0x08090328                MD5Init
                0x0809036a                MD5Update
                0x0809049e                MD5Final
 ** fill        0x08091219        0x3
 .text          0x0809121c      0x48a bin/rtsmbserverapplication.a(set_key.o)
                0x0809121c                rtsmb_des_set_odd_parity
                0x08091256                rtsmb_des_check_key_parity
                0x080912a1                rtsmb_des_is_weak_key
                0x080912ef                rtsmb_des_set_key
                0x0809132b                rtsmb_des_set_key_checked
                0x08091376                rtsmb_des_set_key_unchecked
                0x08091679                rtsmb_des_key_sched
                0x08091693                rtsmb_des_fixup_key_parity
 ** fill        0x080916a6        0x2
 .text          0x080916a8      0x39b bin/rtsmbserverapplication.a(smbsjis.o)
                0x080916a8                rtsmb_jis_to_unicode
                0x080917c3                rtsmb_unicode_to_jis
                0x080918cf                rtsmb_euc_jp_to_unicode
                0x08091974                rtsmb_unicode_to_euc_jp
 ** fill        0x08091a43        0x1
 .text          0x08091a44     0x193e bin/rtsmbserverapplication.a(des_enc.o)
                0x08091a44                rtsmb_des_encrypt
                0x08092214                rtsmb_des_encrypt2
                0x080928e9                rtsmb_des_encrypt3
                0x08092a5c                rtsmb_des_decrypt3
                0x08092bcf                rtsmb_des_ede3_cbc_encrypt
 ** fill        0x08093382        0xe
 .text          0x08093390       0x72 /usr/lib/i386-linux-gnu/libc_nonshared.a(elf-init.oS)
                0x08093390                __libc_csu_init
                0x08093400                __libc_csu_fini
 .text.__i686.get_pc_thunk.bx
                0x08093402        0x4 /usr/lib/i386-linux-gnu/libc_nonshared.a(elf-init.oS)
                0x08093402                __i686.get_pc_thunk.bx
 ** fill        0x08093406        0xa
 .text          0x08093410       0x30 /usr/lib/i386-linux-gnu/libc_nonshared.a(stat.oS)
                0x08093410                __stat
                0x08093410                stat
 .text          0x08093440       0x2a /usr/lib/gcc/i686-linux-gnu/4.6/crtend.o
 ** fill        0x0809346a        0x2
 .text          0x0809346c        0x0 /usr/lib/gcc/i686-linux-gnu/4.6/../../../i386-linux-gnu/crtn.o

.fini           0x0809346c       0x1a
 .fini          0x0809346c       0x10 /usr/lib/gcc/i686-linux-gnu/4.6/../../../i386-linux-gnu/crti.o
                0x0809346c                _fini
 .fini          0x0809347c        0x5 /usr/lib/gcc/i686-linux-gnu/4.6/crtbegin.o
 .fini          0x08093481        0x5 /usr/lib/gcc/i686-linux-gnu/4.6/../../../i386-linux-gnu/crtn.o

.rodata         0x080934a0     0xcca8
 .rodata        0x080934a0        0x4 /usr/lib/gcc/i686-linux-gnu/4.6/../../../i386-linux-gnu/crt1.o
                0x080934a0                _fp_hw
 ** merge constants
                0x080934a4        0x4
 .rodata        0x080934a8      0xf3a bin/rtsmbserverapplication.a(serverexample.o)
 .rodata        0x080943e4      0x42a bin/rtsmbserverapplication.a(rtpnet.o)
 .rodata        0x0809480e       0x14 bin/rtsmbserverapplication.a(rtpterm.o)
 .rodata        0x08094824      0x231 bin/rtsmbserverapplication.a(smbnet.o)
 .rodata        0x08094a58      0x2f1 bin/rtsmbserverapplication.a(srvapi.o)
 .rodata        0x08094d4c      0x2a0 bin/rtsmbserverapplication.a(srvarg.o)
 .rodata        0x08094fec      0x51e bin/rtsmbserverapplication.a(srvauth.o)
 .rodata        0x0809550c      0x308 bin/rtsmbserverapplication.a(srvbrws.o)
 .rodata        0x08095814        0x1 bin/rtsmbserverapplication.a(srvcfg.o)
 .rodata        0x08095818      0x29c bin/rtsmbserverapplication.a(srvnbns.o)
 .rodata        0x08095ab4      0x3de bin/rtsmbserverapplication.a(srvnet.o)
 .rodata        0x08095e92       0x27 bin/rtsmbserverapplication.a(srvrsrcs.o)
 .rodata        0x08095ebc      0x367 bin/rtsmbserverapplication.a(srvshare.o)
 .rodata        0x08096224     0x1358 bin/rtsmbserverapplication.a(srvssn.o)
 .rodata        0x0809757c      0x10c bin/rtsmbserverapplication.a(srvtran2.o)
 .rodata        0x08097688      0x1a2 bin/rtsmbserverapplication.a(srvutil.o)
 .rodata        0x0809782a        0x6 bin/rtsmbserverapplication.a(rtpdebug.o)
 .rodata        0x08097830       0xe9 bin/rtsmbserverapplication.a(rtpsignl.o)
 .rodata        0x0809791c       0x14 bin/rtsmbserverapplication.a(rtpthrd.o)
                0x0809791c                stackSizeMap
 .rodata        0x08097930       0x25 bin/rtsmbserverapplication.a(psmbfile.o)
 .rodata        0x08097955       0x45 bin/rtsmbserverapplication.a(psmbos.o)
 .rodata        0x0809799a       0x20 bin/rtsmbserverapplication.a(smbbrbuf.o)
 .rodata        0x080979ba        0xa bin/rtsmbserverapplication.a(smbdebug.o)
 .rodata        0x080979c4      0x275 bin/rtsmbserverapplication.a(smbnbds.o)
 .rodata        0x08097c3c       0x30 bin/rtsmbserverapplication.a(smbnbns.o)
 .rodata        0x08097c80      0x150 bin/rtsmbserverapplication.a(smbutil.o)
 .rodata        0x08097dd0        0x4 bin/rtsmbserverapplication.a(srvans.o)
 .rodata        0x08097dd4       0x50 bin/rtsmbserverapplication.a(srvassrt.o)
 .rodata        0x08097e24       0x30 bin/rtsmbserverapplication.a(srvbrbak.o)
 .rodata        0x08097e54       0x1e bin/rtsmbserverapplication.a(srvbrbuf.o)
 .rodata        0x08097e72       0x41 bin/rtsmbserverapplication.a(srvcli.o)
 .rodata        0x08097eb3        0x4 bin/rtsmbserverapplication.a(srvcmds.o)
 .rodata        0x08097eb8       0xa8 bin/rtsmbserverapplication.a(srvnbss.o)
 .rodata        0x08097f60       0x49 bin/rtsmbserverapplication.a(srvrap.o)
 .rodata        0x08097fac       0x52 bin/rtsmbserverapplication.a(rtpdate.o)
 .rodata        0x08098000      0x147 bin/rtsmbserverapplication.a(rtpdobj.o)
 .rodata        0x08098148      0x277 bin/rtsmbserverapplication.a(rtpfile.o)
 .rodata        0x080983c0       0x7c bin/rtsmbserverapplication.a(ecb_enc.o)
 .rodata        0x0809843c       0x2f bin/rtsmbserverapplication.a(md4_dgst.o)
 .rodata        0x08098480      0x900 bin/rtsmbserverapplication.a(set_key.o)
 .rodata        0x08098d80     0x6b7c bin/rtsmbserverapplication.a(smbsjis.o)
                0x08098d80                rtsmb_ucode2jis
 .rodata        0x0809f900      0x848 bin/rtsmbserverapplication.a(des_enc.o)
                0x0809f900                rtsmb_des_SPtrans

.eh_frame       0x080a0148     0x8418
 ** eh_frame    0x080a0148     0x8414
 .eh_frame      0x080a855c        0x4 /usr/lib/gcc/i686-linux-gnu/4.6/crtend.o

.eh_frame_hdr   0x080a8560     0x1f94
 ** eh_frame_hdr
                0x080a8560     0x1f94

.ctors          0x080abf0c        0x8
 .ctors         0x080abf0c        0x4 /usr/lib/gcc/i686-linux-gnu/4.6/crtbegin.o
 .ctors         0x080abf10        0x4 /usr/lib/gcc/i686-linux-gnu/4.6/crtend.o

.dtors          0x080abf14        0x8
 .dtors         0x080abf14        0x4 /usr/lib/gcc/i686-linux-gnu/4.6/crtbegin.o
 .dtors         0x080abf18        0x4 /usr/lib/gcc/i686-linux-gnu/4.6/crtend.o
                0x080abf18                __DTOR_END__

.jcr            0x080abf1c        0x4
 .jcr           0x080abf1c        0x0 /usr/lib/gcc/i686-linux-gnu/4.6/crtbegin.o
 .jcr           0x080abf1c        0x4 /usr/lib/gcc/i686-linux-gnu/4.6/crtend.o

.dynamic        0x080abf20       0xd0
 ** dynamic     0x080abf20       0xd0

.got            0x080abff0        0x4
 ** GOT         0x080abff0        0x4

.got.plt        0x080abff4      0x178
 ** GOT PLT     0x080abff4      0x178
 ** GOT IRELATIVE PLT
                0x080ac16c        0x0
 ** GOT         0x080ac16c        0x0

.data           0x080ac180     0xb2c4
 .data          0x080ac180        0x4 /usr/lib/gcc/i686-linux-gnu/4.6/../../../i386-linux-gnu/crt1.o
                0x080ac180                data_start
                0x080ac180                __data_start
 .data          0x080ac184        0x0 /usr/lib/gcc/i686-linux-gnu/4.6/../../../i386-linux-gnu/crti.o
 .data          0x080ac184        0x4 /usr/lib/gcc/i686-linux-gnu/4.6/crtbegin.o
                0x080ac184                __dso_handle
 .data          0x080ac188        0x0 bin/rtsmbserverapplication.o
 .data          0x080ac188       0x10 bin/rtsmbserverapplication.a(serverexample.o)
 .data          0x080ac198        0x0 bin/rtsmbserverapplication.a(rtpscnv.o)
 .data          0x080ac198        0x0 bin/rtsmbserverapplication.a(rtpstr.o)
 .data          0x080ac198        0x0 bin/rtsmbserverapplication.a(rtpnet.o)
 .data          0x080ac198        0x4 bin/rtsmbserverapplication.a(rtpterm.o)
 .data          0x080ac19c       0x10 bin/rtsmbserverapplication.a(smbnet.o)
                0x080ac19c                rtsmb_nbds_port
                0x080ac1a0                rtsmb_nbns_port
                0x080ac1a4                rtsmb_nbss_port
                0x080ac1a8                rtsmb_nbss_direct_port
 .data          0x080ac1ac        0x0 bin/rtsmbserverapplication.a(srvapi.o)
 .data          0x080ac1ac        0x0 bin/rtsmbserverapplication.a(srvarg.o)
 .data          0x080ac1ac        0x0 bin/rtsmbserverapplication.a(srvauth.o)
 .data          0x080ac1ac        0x0 bin/rtsmbserverapplication.a(srvbrws.o)
 .data          0x080ac1ac        0x4 bin/rtsmbserverapplication.a(srvcfg.o)
                0x080ac1ac                prtsmb_srv_ctx
 .data          0x080ac1b0        0x0 bin/rtsmbserverapplication.a(srvglue.o)
 .data          0x080ac1b0        0x0 bin/rtsmbserverapplication.a(srvnbns.o)
 .data          0x080ac1b0        0x0 bin/rtsmbserverapplication.a(srvnet.o)
 .data          0x080ac1b0        0x0 bin/rtsmbserverapplication.a(srvrsrcs.o)
 .data          0x080ac1c0       0x3c bin/rtsmbserverapplication.a(srvshare.o)
 .data          0x080ac200       0xbc bin/rtsmbserverapplication.a(srvssn.o)
                0x080ac280                dialectList
 .data          0x080ac2bc        0x0 bin/rtsmbserverapplication.a(srvtran2.o)
 .data          0x080ac2bc        0x0 bin/rtsmbserverapplication.a(srvutil.o)
 .data          0x080ac2bc        0x0 bin/rtsmbserverapplication.a(rtpchar.o)
 .data          0x080ac2bc        0x4 bin/rtsmbserverapplication.a(rtprand.o)
 .data          0x080ac2c0        0x0 bin/rtsmbserverapplication.a(rtpwchar.o)
 .data          0x080ac2c0        0x0 bin/rtsmbserverapplication.a(rtpwcs.o)
 .data          0x080ac2c0        0x0 bin/rtsmbserverapplication.a(rtpdebug.o)
 .data          0x080ac2c0        0x0 bin/rtsmbserverapplication.a(rtpsignl.o)
 .data          0x080ac2c0        0x0 bin/rtsmbserverapplication.a(rtpthrd.o)
 .data          0x080ac2c0        0x0 bin/rtsmbserverapplication.a(rtptime.o)
 .data          0x080ac2c0        0x0 bin/rtsmbserverapplication.a(md4_one.o)
 .data          0x080ac2c0        0x0 bin/rtsmbserverapplication.a(psmbfile.o)
 .data          0x080ac2c0        0x0 bin/rtsmbserverapplication.a(psmbnet.o)
 .data          0x080ac2c0       0x18 bin/rtsmbserverapplication.a(psmbos.o)
                0x080ac2c0                linux_printer
 .data          0x080ac2e0       0x22 bin/rtsmbserverapplication.a(smbbrbuf.o)
 .data          0x080ac304        0x0 bin/rtsmbserverapplication.a(smbbrcfg.o)
 .data          0x080ac304        0x0 bin/rtsmbserverapplication.a(smbdebug.o)
 .data          0x080ac304        0x0 bin/rtsmbserverapplication.a(smbglue.o)
 .data          0x080ac304        0x0 bin/rtsmbserverapplication.a(smbnb.o)
 .data          0x080ac304        0x0 bin/rtsmbserverapplication.a(smbnbds.o)
 .data          0x080ac304        0x0 bin/rtsmbserverapplication.a(smbnbns.o)
 .data          0x080ac304        0x0 bin/rtsmbserverapplication.a(smbnbss.o)
 .data          0x080ac304        0x0 bin/rtsmbserverapplication.a(smbpack.o)
 .data          0x080ac304        0x0 bin/rtsmbserverapplication.a(smbread.o)
 .data          0x080ac320       0x3c bin/rtsmbserverapplication.a(smbutil.o)
                0x080ac320                cpTable
 .data          0x080ac35c        0x0 bin/rtsmbserverapplication.a(srvans.o)
 .data          0x080ac35c        0x0 bin/rtsmbserverapplication.a(srvassrt.o)
 .data          0x080ac35c        0x0 bin/rtsmbserverapplication.a(srvbrbak.o)
 .data          0x080ac360       0x22 bin/rtsmbserverapplication.a(srvbrbuf.o)
 .data          0x080ac384       0x14 bin/rtsmbserverapplication.a(srvcli.o)
 .data          0x080ac398        0x0 bin/rtsmbserverapplication.a(srvcmds.o)
 .data          0x080ac398        0x0 bin/rtsmbserverapplication.a(srvfio.o)
 .data          0x080ac398        0x0 bin/rtsmbserverapplication.a(srvnbss.o)
 .data          0x080ac398        0x0 bin/rtsmbserverapplication.a(srvrap.o)
 .data          0x080ac398        0x0 bin/rtsmbserverapplication.a(rtpdate.o)
 .data          0x080ac398        0x0 bin/rtsmbserverapplication.a(rtpdobj.o)
 .data          0x080ac398        0x0 bin/rtsmbserverapplication.a(rtpfile.o)
 .data          0x080ac398        0x0 bin/rtsmbserverapplication.a(rtpwfile.o)
 .data          0x080ac398        0xc bin/rtsmbserverapplication.a(ecb_enc.o)
                0x080ac398                libdes_version
                0x080ac39c                RTSMB_DES_version
 .data          0x080ac3a4        0x0 bin/rtsmbserverapplication.a(hmac_md5.o)
 .data          0x080ac3a4        0x4 bin/rtsmbserverapplication.a(md4_dgst.o)
                0x080ac3a4                RTSMB_MD4_version
 .data          0x080ac3c0       0x40 bin/rtsmbserverapplication.a(md5rsa.o)
 .data          0x080ac400       0xc0 bin/rtsmbserverapplication.a(set_key.o)
 .data          0x080ac4c0     0xaf84 bin/rtsmbserverapplication.a(smbsjis.o)
                0x080ac4c0                giJapaneseToUnicode
                0x080b09e0                giUnicodeToEucJp
 .data          0x080b7444        0x0 bin/rtsmbserverapplication.a(des_enc.o)
 .data          0x080b7444        0x0 /usr/lib/i386-linux-gnu/libc_nonshared.a(elf-init.oS)
 .data          0x080b7444        0x0 /usr/lib/i386-linux-gnu/libc_nonshared.a(stat.oS)
 .data          0x080b7444        0x0 /usr/lib/gcc/i686-linux-gnu/4.6/crtend.o
 .data          0x080b7444        0x0 /usr/lib/gcc/i686-linux-gnu/4.6/../../../i386-linux-gnu/crtn.o

.bss            0x080b7460     0xd024
 .bss           0x080b7460        0x0 /usr/lib/gcc/i686-linux-gnu/4.6/../../../i386-linux-gnu/crt1.o
 .bss           0x080b7460        0x0 /usr/lib/gcc/i686-linux-gnu/4.6/../../../i386-linux-gnu/crti.o
 .bss           0x080b7460        0x8 /usr/lib/gcc/i686-linux-gnu/4.6/crtbegin.o
 .bss           0x080b7468        0x0 bin/rtsmbserverapplication.o
 .bss           0x080b7468        0x5 bin/rtsmbserverapplication.a(serverexample.o)
 .bss           0x080b7470        0x0 bin/rtsmbserverapplication.a(rtpscnv.o)
 .bss           0x080b7470        0x0 bin/rtsmbserverapplication.a(rtpstr.o)
 .bss           0x080b7470        0x4 bin/rtsmbserverapplication.a(rtpnet.o)
                0x080b7470                rtpnetOpenSockets
 .bss           0x080b7480       0xdc bin/rtsmbserverapplication.a(rtpterm.o)
                0x080b7480                kbrawmode
 .bss           0x080b755c        0x9 bin/rtsmbserverapplication.a(smbnet.o)
 .bss           0x080b7568        0x0 bin/rtsmbserverapplication.a(srvapi.o)
 .bss           0x080b7568        0x0 bin/rtsmbserverapplication.a(srvarg.o)
 .bss           0x080b7568        0x0 bin/rtsmbserverapplication.a(srvauth.o)
 .bss           0x080b7568       0x34 bin/rtsmbserverapplication.a(srvbrws.o)
 .bss           0x080b75a0     0xc438 bin/rtsmbserverapplication.a(srvcfg.o)
 .bss           0x080c39d8        0x0 bin/rtsmbserverapplication.a(srvglue.o)
 .bss           0x080c39e0      0x364 bin/rtsmbserverapplication.a(srvnbns.o)
 .bss           0x080c3d44        0x8 bin/rtsmbserverapplication.a(srvnet.o)
 .bss           0x080c3d4c        0x0 bin/rtsmbserverapplication.a(srvrsrcs.o)
 .bss           0x080c3d4c        0x0 bin/rtsmbserverapplication.a(srvshare.o)
 .bss           0x080c3d4c        0x0 bin/rtsmbserverapplication.a(srvssn.o)
 .bss           0x080c3d4c        0x0 bin/rtsmbserverapplication.a(srvtran2.o)
 .bss           0x080c3d4c        0x0 bin/rtsmbserverapplication.a(srvutil.o)
 .bss           0x080c3d4c        0x0 bin/rtsmbserverapplication.a(rtpchar.o)
 .bss           0x080c3d4c        0x0 bin/rtsmbserverapplication.a(rtprand.o)
 .bss           0x080c3d4c        0x0 bin/rtsmbserverapplication.a(rtpwchar.o)
 .bss           0x080c3d4c        0x0 bin/rtsmbserverapplication.a(rtpwcs.o)
 .bss           0x080c3d4c        0x0 bin/rtsmbserverapplication.a(rtpdebug.o)
 .bss           0x080c3d4c        0x0 bin/rtsmbserverapplication.a(rtpsignl.o)
 .bss           0x080c3d4c        0x4 bin/rtsmbserverapplication.a(rtpthrd.o)
 .bss           0x080c3d50        0x0 bin/rtsmbserverapplication.a(rtptime.o)
 .bss           0x080c3d50       0x10 bin/rtsmbserverapplication.a(md4_one.o)
 .bss           0x080c3d60       0xa0 bin/rtsmbserverapplication.a(psmbfile.o)
                0x080c3d60                prtsmb_filesys
 .bss           0x080c3e00        0x0 bin/rtsmbserverapplication.a(psmbnet.o)
 .bss           0x080c3e00        0x0 bin/rtsmbserverapplication.a(psmbos.o)
 .bss           0x080c3e00        0x0 bin/rtsmbserverapplication.a(smbbrbuf.o)
 .bss           0x080c3e00      0x454 bin/rtsmbserverapplication.a(smbbrcfg.o)
                0x080c3e00                rtsmb_browse_config_initialized
 .bss           0x080c4254        0x0 bin/rtsmbserverapplication.a(smbdebug.o)
 .bss           0x080c4254       0x14 bin/rtsmbserverapplication.a(smbglue.o)
                0x080c4254                rtsmb_glue_get_server_name_from_cache
                0x080c4258                rtsmb_glue_are_other_workgroups
                0x080c425c                rtsmb_glue_do_we_have_server_list
                0x080c4260                rtsmb_glue_get_our_server_name
                0x080c4264                rtsmb_glue_process_nbds_message
 .bss           0x080c4268        0x0 bin/rtsmbserverapplication.a(smbnb.o)
 .bss           0x080c4268       0x39 bin/rtsmbserverapplication.a(smbnbds.o)
 .bss           0x080c42a4        0x0 bin/rtsmbserverapplication.a(smbnbns.o)
 .bss           0x080c42a4        0x0 bin/rtsmbserverapplication.a(smbnbss.o)
 .bss           0x080c42a4        0x0 bin/rtsmbserverapplication.a(smbpack.o)
 .bss           0x080c42a4        0x0 bin/rtsmbserverapplication.a(smbread.o)
 .bss           0x080c42a4        0x0 bin/rtsmbserverapplication.a(smbutil.o)
 .bss           0x080c42a4        0x0 bin/rtsmbserverapplication.a(srvans.o)
 .bss           0x080c42a4        0x0 bin/rtsmbserverapplication.a(srvassrt.o)
 .bss           0x080c42a4        0xc bin/rtsmbserverapplication.a(srvbrbak.o)
 .bss           0x080c42b0        0x0 bin/rtsmbserverapplication.a(srvbrbuf.o)
 .bss           0x080c42b0       0x2e bin/rtsmbserverapplication.a(srvcli.o)
 .bss           0x080c42e0        0x0 bin/rtsmbserverapplication.a(srvcmds.o)
 .bss           0x080c42e0        0x0 bin/rtsmbserverapplication.a(srvfio.o)
 .bss           0x080c42e0        0x0 bin/rtsmbserverapplication.a(srvnbss.o)
 .bss           0x080c42e0        0x0 bin/rtsmbserverapplication.a(srvrap.o)
 .bss           0x080c42e0        0x0 bin/rtsmbserverapplication.a(rtpdate.o)
 .bss           0x080c42e0        0x0 bin/rtsmbserverapplication.a(rtpdobj.o)
 .bss           0x080c42e0        0x0 bin/rtsmbserverapplication.a(rtpfile.o)
 .bss           0x080c42e0        0x0 bin/rtsmbserverapplication.a(rtpwfile.o)
 .bss           0x080c42e0       0x20 bin/rtsmbserverapplication.a(ecb_enc.o)
 .bss           0x080c4300        0x0 bin/rtsmbserverapplication.a(hmac_md5.o)
 .bss           0x080c4300        0x0 bin/rtsmbserverapplication.a(md4_dgst.o)
 .bss           0x080c4300        0x0 bin/rtsmbserverapplication.a(md5rsa.o)
 .bss           0x080c4300        0x4 bin/rtsmbserverapplication.a(set_key.o)
                0x080c4300                rtsmb_des_check_key
 .bss           0x080c4304        0x0 bin/rtsmbserverapplication.a(smbsjis.o)
 .bss           0x080c4304        0x0 bin/rtsmbserverapplication.a(des_enc.o)
 .bss           0x080c4304        0x0 /usr/lib/i386-linux-gnu/libc_nonshared.a(elf-init.oS)
 .bss           0x080c4304        0x0 /usr/lib/i386-linux-gnu/libc_nonshared.a(stat.oS)
 .bss           0x080c4304        0x0 /usr/lib/gcc/i686-linux-gnu/4.6/crtend.o
 .bss           0x080c4304        0x0 /usr/lib/gcc/i686-linux-gnu/4.6/../../../i386-linux-gnu/crtn.o
 ** common      0x080c4320      0x108
 ** dynbss      0x080c4440       0x44
